; ModuleID = '60/666.c'
source_filename = "60/666.c"
target datalayout = "e-m:e-p270:32:32-p271:32:32-p272:64:64-i64:64-f80:128-n8:16:32:64-S128"
target triple = "x86_64-pc-linux-gnu"

@.str = private unnamed_addr constant [3 x i8] c"%d\00", align 1
@.str.1 = private unnamed_addr constant [6 x i8] c"empty\00", align 1
@.str.2 = private unnamed_addr constant [7 x i8] c"%d %d\0A\00", align 1

; Function Attrs: noinline nounwind uwtable
define dso_local i32 @main() #0 {
  %1 = alloca i32, align 4
  %2 = alloca i32, align 4
  %3 = alloca i32, align 4
  %4 = alloca i32, align 4
  %5 = alloca i32, align 4
  %6 = alloca i32, align 4
  %7 = alloca i32, align 4
  store i32 0, i32* %1, align 4
  %8 = call i32 (i8*, ...) @__isoc99_scanf(i8* getelementptr inbounds ([3 x i8], [3 x i8]* @.str, i64 0, i64 0), i32* %2)
  %9 = load i32, i32* %2, align 4
  %10 = icmp eq i32 %9, 1
  br i1 %10, label %20, label %11

11:                                               ; preds = %0
  %12 = load i32, i32* %2, align 4
  %13 = icmp eq i32 %12, 2
  br i1 %13, label %20, label %14

14:                                               ; preds = %11
  %15 = load i32, i32* %2, align 4
  %16 = icmp eq i32 %15, 3
  br i1 %16, label %20, label %17

17:                                               ; preds = %14
  %18 = load i32, i32* %2, align 4
  %19 = icmp eq i32 %18, 4
  br i1 %19, label %20, label %22

20:                                               ; preds = %17, %14, %11, %0
  %21 = call i32 (i8*, ...) @printf(i8* getelementptr inbounds ([6 x i8], [6 x i8]* @.str.1, i64 0, i64 0))
  br label %88

22:                                               ; preds = %17
  store i32 2, i32* %3, align 4
  br label %23

23:                                               ; preds = %84, %22
  %24 = load i32, i32* %3, align 4
  %25 = load i32, i32* %2, align 4
  %26 = sub nsw i32 %25, 2
  %27 = icmp sle i32 %24, %26
  br i1 %27, label %28, label %87

28:                                               ; preds = %23
  %29 = load i32, i32* %3, align 4
  %30 = sitofp i32 %29 to double
  %31 = call double @sqrt(double %30) #3
  %32 = fptosi double %31 to i32
  store i32 %32, i32* %4, align 4
  %33 = load i32, i32* %3, align 4
  %34 = add nsw i32 %33, 2
  %35 = sitofp i32 %34 to double
  %36 = call double @sqrt(double %35) #3
  %37 = fptosi double %36 to i32
  store i32 %37, i32* %6, align 4
  store i32 2, i32* %5, align 4
  br label %38

38:                                               ; preds = %49, %28
  %39 = load i32, i32* %5, align 4
  %40 = load i32, i32* %4, align 4
  %41 = icmp sle i32 %39, %40
  br i1 %41, label %42, label %52

42:                                               ; preds = %38
  %43 = load i32, i32* %3, align 4
  %44 = load i32, i32* %5, align 4
  %45 = srem i32 %43, %44
  %46 = icmp eq i32 %45, 0
  br i1 %46, label %47, label %48

47:                                               ; preds = %42
  br label %52

48:                                               ; preds = %42
  br label %49

49:                                               ; preds = %48
  %50 = load i32, i32* %5, align 4
  %51 = add nsw i32 %50, 1
  store i32 %51, i32* %5, align 4
  br label %38

52:                                               ; preds = %47, %38
  store i32 2, i32* %7, align 4
  br label %53

53:                                               ; preds = %65, %52
  %54 = load i32, i32* %7, align 4
  %55 = load i32, i32* %6, align 4
  %56 = icmp sle i32 %54, %55
  br i1 %56, label %57, label %68

57:                                               ; preds = %53
  %58 = load i32, i32* %3, align 4
  %59 = add nsw i32 %58, 2
  %60 = load i32, i32* %7, align 4
  %61 = srem i32 %59, %60
  %62 = icmp eq i32 %61, 0
  br i1 %62, label %63, label %64

63:                                               ; preds = %57
  br label %68

64:                                               ; preds = %57
  br label %65

65:                                               ; preds = %64
  %66 = load i32, i32* %7, align 4
  %67 = add nsw i32 %66, 1
  store i32 %67, i32* %7, align 4
  br label %53

68:                                               ; preds = %63, %53
  %69 = load i32, i32* %5, align 4
  %70 = load i32, i32* %4, align 4
  %71 = add nsw i32 %70, 1
  %72 = icmp eq i32 %69, %71
  br i1 %72, label %73, label %83

73:                                               ; preds = %68
  %74 = load i32, i32* %7, align 4
  %75 = load i32, i32* %6, align 4
  %76 = add nsw i32 %75, 1
  %77 = icmp eq i32 %74, %76
  br i1 %77, label %78, label %83

78:                                               ; preds = %73
  %79 = load i32, i32* %3, align 4
  %80 = load i32, i32* %3, align 4
  %81 = add nsw i32 %80, 2
  %82 = call i32 (i8*, ...) @printf(i8* getelementptr inbounds ([7 x i8], [7 x i8]* @.str.2, i64 0, i64 0), i32 %79, i32 %81)
  br label %83

83:                                               ; preds = %78, %73, %68
  br label %84

84:                                               ; preds = %83
  %85 = load i32, i32* %3, align 4
  %86 = add nsw i32 %85, 1
  store i32 %86, i32* %3, align 4
  br label %23

87:                                               ; preds = %23
  br label %88

88:                                               ; preds = %87, %20
  %89 = call i32 @getchar()
  %90 = call i32 @getchar()
  %91 = call i32 @getchar()
  %92 = call i32 @getchar()
  %93 = call i32 @getchar()
  %94 = call i32 @getchar()
  %95 = call i32 @getchar()
  %96 = call i32 @getchar()
  %97 = load i32, i32* %1, align 4
  ret i32 %97
}

declare dso_local i32 @__isoc99_scanf(i8*, ...) #1

declare dso_local i32 @printf(i8*, ...) #1

; Function Attrs: nounwind
declare dso_local double @sqrt(double) #2

declare dso_local i32 @getchar() #1


!llvm.module.flags = !{!0}
!llvm.ident = !{!1}

!0 = !{i32 1, !"wchar_size", i32 4}
!1 = !{!"clang version 10.0.0-4ubuntu1 "}
