; ModuleID = 'source-C-CXX/59/666.c'
source_filename = "source-C-CXX/59/666.c"
target datalayout = "e-m:e-p270:32:32-p271:32:32-p272:64:64-i64:64-f80:128-n8:16:32:64-S128"
target triple = "x86_64-pc-linux-gnu"

%struct._IO_FILE = type { i32, i8*, i8*, i8*, i8*, i8*, i8*, i8*, i8*, i8*, i8*, i8*, %struct._IO_marker*, %struct._IO_FILE*, i32, i32, i64, i16, i8, [1 x i8], i8*, i64, %struct._IO_codecvt*, %struct._IO_wide_data*, %struct._IO_FILE*, i8*, i64, i32, [20 x i8] }
%struct._IO_marker = type opaque
%struct._IO_codecvt = type opaque
%struct._IO_wide_data = type opaque

@.str = private unnamed_addr constant [3 x i8] c"%d\00", align 1
@.str.1 = private unnamed_addr constant [6 x i8] c"empty\00", align 1
@.str.2 = private unnamed_addr constant [7 x i8] c"%d %d\0A\00", align 1
@stdin = external local_unnamed_addr global %struct._IO_FILE*, align 8

; Function Attrs: nofree nounwind sspstrong uwtable
define dso_local i32 @main() local_unnamed_addr #0 {
  %1 = alloca i32, align 4
  %2 = bitcast i32* %1 to i8*
  call void @llvm.lifetime.start.p0i8(i64 4, i8* nonnull %2) #4
  %3 = call i32 (i8*, ...) @__isoc99_scanf(i8* getelementptr inbounds ([3 x i8], [3 x i8]* @.str, i64 0, i64 0), i32* nonnull %1)
  %4 = load i32, i32* %1, align 4, !tbaa !5
  %5 = add i32 %4, -1
  %6 = icmp ult i32 %5, 4
  br i1 %6, label %9, label %7

7:                                                ; preds = %0
  %8 = icmp slt i32 %4, 4
  br i1 %8, label %54, label %11

9:                                                ; preds = %0
  %10 = call i32 (i8*, ...) @printf(i8* nonnull dereferenceable(1) getelementptr inbounds ([6 x i8], [6 x i8]* @.str.1, i64 0, i64 0))
  br label %54

11:                                               ; preds = %7, %49
  %12 = phi i32 [ %50, %49 ], [ 2, %7 ]
  %13 = sitofp i32 %12 to double
  %14 = call double @sqrt(double %13) #4
  %15 = fptosi double %14 to i32
  %16 = add nuw nsw i32 %12, 2
  %17 = sitofp i32 %16 to double
  %18 = call double @sqrt(double %17) #4
  %19 = fptosi double %18 to i32
  %20 = icmp slt i32 %15, 2
  br i1 %20, label %30, label %21

21:                                               ; preds = %11
  %22 = add nuw i32 %15, 1
  br label %23

23:                                               ; preds = %21, %27
  %24 = phi i32 [ %28, %27 ], [ 2, %21 ]
  %25 = urem i32 %12, %24
  %26 = icmp eq i32 %25, 0
  br i1 %26, label %30, label %27

27:                                               ; preds = %23
  %28 = add nuw i32 %24, 1
  %29 = icmp eq i32 %24, %15
  br i1 %29, label %30, label %23, !llvm.loop !9

30:                                               ; preds = %27, %23, %11
  %31 = phi i32 [ 2, %11 ], [ %24, %23 ], [ %22, %27 ]
  %32 = icmp slt i32 %19, 2
  %33 = add i32 %19, 1
  br i1 %32, label %41, label %34

34:                                               ; preds = %30, %38
  %35 = phi i32 [ %39, %38 ], [ 2, %30 ]
  %36 = urem i32 %16, %35
  %37 = icmp eq i32 %36, 0
  br i1 %37, label %41, label %38

38:                                               ; preds = %34
  %39 = add nuw i32 %35, 1
  %40 = icmp eq i32 %35, %19
  br i1 %40, label %41, label %34, !llvm.loop !11

41:                                               ; preds = %38, %34, %30
  %42 = phi i32 [ 2, %30 ], [ %35, %34 ], [ %33, %38 ]
  %43 = add nsw i32 %15, 1
  %44 = icmp eq i32 %31, %43
  %45 = icmp eq i32 %42, %33
  %46 = select i1 %44, i1 %45, i1 false
  br i1 %46, label %47, label %49

47:                                               ; preds = %41
  %48 = call i32 (i8*, ...) @printf(i8* nonnull dereferenceable(1) getelementptr inbounds ([7 x i8], [7 x i8]* @.str.2, i64 0, i64 0), i32 %12, i32 %16)
  br label %49

49:                                               ; preds = %41, %47
  %50 = add nuw nsw i32 %12, 1
  %51 = load i32, i32* %1, align 4, !tbaa !5
  %52 = add nsw i32 %51, -2
  %53 = icmp slt i32 %12, %52
  br i1 %53, label %11, label %54, !llvm.loop !12

54:                                               ; preds = %49, %7, %9
  %55 = load %struct._IO_FILE*, %struct._IO_FILE** @stdin, align 8, !tbaa !13
  %56 = call i32 @getc(%struct._IO_FILE* %55) #4
  %57 = load %struct._IO_FILE*, %struct._IO_FILE** @stdin, align 8, !tbaa !13
  %58 = call i32 @getc(%struct._IO_FILE* %57) #4
  %59 = load %struct._IO_FILE*, %struct._IO_FILE** @stdin, align 8, !tbaa !13
  %60 = call i32 @getc(%struct._IO_FILE* %59) #4
  %61 = load %struct._IO_FILE*, %struct._IO_FILE** @stdin, align 8, !tbaa !13
  %62 = call i32 @getc(%struct._IO_FILE* %61) #4
  %63 = load %struct._IO_FILE*, %struct._IO_FILE** @stdin, align 8, !tbaa !13
  %64 = call i32 @getc(%struct._IO_FILE* %63) #4
  %65 = load %struct._IO_FILE*, %struct._IO_FILE** @stdin, align 8, !tbaa !13
  %66 = call i32 @getc(%struct._IO_FILE* %65) #4
  %67 = load %struct._IO_FILE*, %struct._IO_FILE** @stdin, align 8, !tbaa !13
  %68 = call i32 @getc(%struct._IO_FILE* %67) #4
  %69 = load %struct._IO_FILE*, %struct._IO_FILE** @stdin, align 8, !tbaa !13
  %70 = call i32 @getc(%struct._IO_FILE* %69) #4
  call void @llvm.lifetime.end.p0i8(i64 4, i8* nonnull %2) #4
  ret i32 0
}

; Function Attrs: argmemonly mustprogress nofree nosync nounwind willreturn
declare void @llvm.lifetime.start.p0i8(i64 immarg, i8* nocapture) #1

; Function Attrs: nofree nounwind
declare noundef i32 @__isoc99_scanf(i8* nocapture noundef readonly, ...) local_unnamed_addr #2

; Function Attrs: nofree nounwind
declare noundef i32 @printf(i8* nocapture noundef readonly, ...) local_unnamed_addr #2

; Function Attrs: mustprogress nofree nounwind willreturn
declare double @sqrt(double) local_unnamed_addr #3

; Function Attrs: argmemonly mustprogress nofree nosync nounwind willreturn
declare void @llvm.lifetime.end.p0i8(i64 immarg, i8* nocapture) #1

; Function Attrs: nofree nounwind
declare noundef i32 @getc(%struct._IO_FILE* nocapture noundef) local_unnamed_addr #2


!llvm.module.flags = !{!0, !1, !2, !3}
!llvm.ident = !{!4}

!0 = !{i32 1, !"wchar_size", i32 4}
!1 = !{i32 7, !"PIC Level", i32 2}
!2 = !{i32 7, !"PIE Level", i32 2}
!3 = !{i32 7, !"uwtable", i32 1}
!4 = !{!"clang version 13.0.0"}
!5 = !{!6, !6, i64 0}
!6 = !{!"int", !7, i64 0}
!7 = !{!"omnipotent char", !8, i64 0}
!8 = !{!"Simple C/C++ TBAA"}
!9 = distinct !{!9, !10}
!10 = !{!"llvm.loop.mustprogress"}
!11 = distinct !{!11, !10}
!12 = distinct !{!12, !10}
!13 = !{!14, !14, i64 0}
!14 = !{!"any pointer", !7, i64 0}
